target datalayout = "e-m:e-p270:32:32-p271:32:32-p272:64:64-i64:64-i128:128-f80:128-n8:16:32:64-S128"
target triple = "x86_64-unknown-linux-gnu"

; Function Attrs: mustprogress nounwind uwtable
define dso_local noundef i64 @_ZN9struct_pb8compiler21calculate_varint_sizeEm(i64 noundef %t) #5 {
entry:
  %t.addr = alloca i64, align 8
  %ret = alloca i64, align 8
  store i64 %t, ptr %t.addr, align 8
  store i64 0, ptr %ret, align 8
  br label %do.body

do.body:                                          ; preds = %do.cond, %entry
  %0 = load i64, ptr %ret, align 8
  %inc = add i64 %0, 1
  store i64 %inc, ptr %ret, align 8
  %1 = load i64, ptr %t.addr, align 8
  %shr = lshr i64 %1, 7
  store i64 %shr, ptr %t.addr, align 8
  br label %do.cond

do.cond:                                          ; preds = %do.body
  %2 = load i64, ptr %t.addr, align 8
  %cmp = icmp ne i64 %2, 0
  br i1 %cmp, label %do.body, label %do.end, !llvm.loop !5

do.end:                                           ; preds = %do.cond
  %3 = load i64, ptr %ret, align 8
  ret i64 %3
}