; Function Attrs: mustprogress nofree norecurse nosync nounwind willreturn memory(none) uwtable
define dso_local noundef i64 @_ZN9struct_pb8compiler21calculate_varint_sizeEm(i64 noundef %t) local_unnamed_addr #5 {
entry:
  br label %do.body

do.body:                                          ; preds = %do.body, %entry
  %t.addr.0 = phi i64 [ %t, %entry ], [ %shr, %do.body ]
  %ret.0 = phi i64 [ 0, %entry ], [ %inc, %do.body ]
  %inc = add nuw nsw i64 %ret.0, 1
  %shr = lshr i64 %t.addr.0, 7
  %cmp.not = icmp ult i64 %t.addr.0, 128
  br i1 %cmp.not, label %do.end, label %do.body, !llvm.loop !8

do.end:                                           ; preds = %do.body
  ret i64 %inc
}